target datalayout = "e-m:e-p270:32:32-p271:32:32-p272:64:64-i64:64-i128:128-f80:128-n8:16:32:64-S128"
target triple = "x86_64-pc-linux-gnu"

%"struct.duckdb_zstd::ZSTD_customMem" = type { ptr, ptr, ptr }
%"struct.duckdb_zstd::ZSTD_frameParameters" = type { i32, i32, i32 }
%"struct.duckdb_zstd::ZSTD_compressionParameters" = type { i32, i32, i32, i32, i32, i32, i32 }
%"struct.duckdb_zstd::ZSTD_CCtx_s" = type { i32, i32, i32, %"struct.duckdb_zstd::ZSTD_CCtx_params_s", %"struct.duckdb_zstd::ZSTD_CCtx_params_s", %"struct.duckdb_zstd::ZSTD_CCtx_params_s", i32, i64, %"struct.duckdb_zstd::ZSTD_cwksp", i64, i64, i64, i64, %"struct.duckdb_zstd::XXH64_state_s", %"struct.duckdb_zstd::ZSTD_customMem", ptr, i64, %"struct.duckdb_zstd::SeqCollector", i32, i32, %"struct.duckdb_zstd::seqStore_t", %"struct.duckdb_zstd::ldmState_t", ptr, i64, %"struct.duckdb_zstd::rawSeqStore_t", %"struct.duckdb_zstd::ZSTD_blockState_t", ptr, i32, ptr, i64, i64, i64, i64, ptr, i64, i64, i64, i32, i32, %"struct.duckdb_zstd::ZSTD_inBuffer_s", i64, i64, %"struct.duckdb_zstd::ZSTD_localDict", ptr, %"struct.duckdb_zstd::ZSTD_prefixDict_s", i64, %"struct.duckdb_zstd::ZSTD_blockSplitCtx", ptr, i64 }
%"struct.duckdb_zstd::ZSTD_CCtx_params_s" = type { i32, %"struct.duckdb_zstd::ZSTD_compressionParameters", %"struct.duckdb_zstd::ZSTD_frameParameters", i32, i32, i64, i32, i32, i32, i32, i64, i32, i32, %"struct.duckdb_zstd::ldmParams_t", i32, i32, i32, i32, i32, i32, i32, i32, %"struct.duckdb_zstd::ZSTD_customMem", i32, i32, ptr, ptr, i64, i32 }
%"struct.duckdb_zstd::ldmParams_t" = type { i32, i32, i32, i32, i32, i32 }
%"struct.duckdb_zstd::ZSTD_cwksp" = type { ptr, ptr, ptr, ptr, ptr, ptr, ptr, i8, i32, i32, i32 }
%"struct.duckdb_zstd::XXH64_state_s" = type { i64, i64, i64, i64, i64, [4 x i64], i32, [2 x i32] }
%"struct.duckdb_zstd::SeqCollector" = type { i32, ptr, i64, i64 }
%"struct.duckdb_zstd::seqStore_t" = type { ptr, ptr, ptr, ptr, ptr, ptr, ptr, i64, i64, i32, i32 }
%"struct.duckdb_zstd::ldmState_t" = type { %"struct.duckdb_zstd::ZSTD_window_t", ptr, i32, ptr, [64 x i64], [64 x %"struct.duckdb_zstd::ldmMatchCandidate_t"] }
%"struct.duckdb_zstd::ZSTD_window_t" = type { ptr, ptr, ptr, i32, i32, i32 }
%"struct.duckdb_zstd::ldmMatchCandidate_t" = type { ptr, i32, i32, ptr }
%"struct.duckdb_zstd::rawSeqStore_t" = type { ptr, i64, i64, i64, i64 }
%"struct.duckdb_zstd::ZSTD_blockState_t" = type { ptr, ptr, %"struct.duckdb_zstd::ZSTD_matchState_t" }
%"struct.duckdb_zstd::ZSTD_matchState_t" = type { %"struct.duckdb_zstd::ZSTD_window_t", i32, i32, i32, i32, ptr, [8 x i32], i64, i32, ptr, ptr, ptr, i32, i32, %"struct.duckdb_zstd::optState_t", ptr, %"struct.duckdb_zstd::ZSTD_compressionParameters", ptr, i32, i32 }
%"struct.duckdb_zstd::optState_t" = type { ptr, ptr, ptr, ptr, ptr, ptr, i32, i32, i32, i32, i32, i32, i32, i32, i32, ptr, i32 }
%"struct.duckdb_zstd::ZSTD_inBuffer_s" = type { ptr, i64, i64 }
%"struct.duckdb_zstd::ZSTD_localDict" = type { ptr, ptr, i64, i32, ptr }
%"struct.duckdb_zstd::ZSTD_prefixDict_s" = type { ptr, i64, i32 }
%"struct.duckdb_zstd::ZSTD_blockSplitCtx" = type { %"struct.duckdb_zstd::seqStore_t", %"struct.duckdb_zstd::seqStore_t", %"struct.duckdb_zstd::seqStore_t", %"struct.duckdb_zstd::seqStore_t", %"struct.duckdb_zstd::seqStore_t", [196 x i32], %"struct.duckdb_zstd::ZSTD_entropyCTablesMetadata_t" }
%"struct.duckdb_zstd::ZSTD_entropyCTablesMetadata_t" = type { %"struct.duckdb_zstd::ZSTD_hufCTablesMetadata_t", %"struct.duckdb_zstd::ZSTD_fseCTablesMetadata_t" }
%"struct.duckdb_zstd::ZSTD_hufCTablesMetadata_t" = type { i32, [128 x i8], i64 }
%"struct.duckdb_zstd::ZSTD_fseCTablesMetadata_t" = type { i32, i32, i32, [133 x i8], i64, i64 }

; Function Attrs: mustprogress nounwind uwtable
define internal noundef i32 @_ZN11duckdb_zstdL23ZSTD_isUpdateAuthorizedENS_15ZSTD_cParameterE(i32 noundef %0) #0 {
  %2 = alloca i32, align 4
  %3 = alloca i32, align 4
  store i32 %0, ptr %3, align 4, !tbaa !116
  %4 = load i32, ptr %3, align 4, !tbaa !116
  switch i32 %4, label %7 [
    i32 100, label %5
    i32 102, label %5
    i32 103, label %5
    i32 104, label %5
    i32 105, label %5
    i32 106, label %5
    i32 107, label %5
    i32 10, label %6
    i32 101, label %6
    i32 200, label %6
    i32 201, label %6
    i32 202, label %6
    i32 1000, label %6
    i32 400, label %6
    i32 401, label %6
    i32 402, label %6
    i32 500, label %6
    i32 1005, label %6
    i32 160, label %6
    i32 161, label %6
    i32 162, label %6
    i32 163, label %6
    i32 164, label %6
    i32 1001, label %6
    i32 1002, label %6
    i32 130, label %6
    i32 1004, label %6
    i32 1006, label %6
    i32 1007, label %6
    i32 1008, label %6
    i32 1009, label %6
    i32 1010, label %6
    i32 1011, label %6
    i32 1012, label %6
    i32 1013, label %6
    i32 1014, label %6
    i32 1015, label %6
    i32 1016, label %6
  ]

5:                                                ; preds = %1, %1, %1, %1, %1, %1, %1
  store i32 1, ptr %2, align 4
  br label %8

6:                                                ; preds = %1, %1, %1, %1, %1, %1, %1, %1, %1, %1, %1, %1, %1, %1, %1, %1, %1, %1, %1, %1, %1, %1, %1, %1, %1, %1, %1, %1, %1, %1, %1
  br label %7

7:                                                ; preds = %1, %6
  store i32 0, ptr %2, align 4
  br label %8

8:                                                ; preds = %7, %5
  %9 = load i32, ptr %2, align 4
  ret i32 %9
}

; Function Attrs: mustprogress uwtable
define noundef i64 @_ZN11duckdb_zstd22ZSTD_CCtx_setParameterEPNS_11ZSTD_CCtx_sENS_15ZSTD_cParameterEi(ptr noundef %0, i32 noundef %1, i32 noundef %2) #2 {
  %4 = alloca i64, align 8
  %5 = alloca ptr, align 8
  %6 = alloca i32, align 4
  %7 = alloca i32, align 4
  store ptr %0, ptr %5, align 8, !tbaa !13
  store i32 %1, ptr %6, align 4, !tbaa !116
  store i32 %2, ptr %7, align 4, !tbaa !79
  br label %8

8:                                                ; preds = %3
  br label %9

9:                                                ; preds = %8
  %10 = load ptr, ptr %5, align 8, !tbaa !13
  %11 = getelementptr inbounds nuw %"struct.duckdb_zstd::ZSTD_CCtx_s", ptr %10, i32 0, i32 37
  %12 = load i32, ptr %11, align 8, !tbaa !122
  %13 = icmp ne i32 %12, 0
  br i1 %13, label %14, label %33

14:                                               ; preds = %9
  %15 = load i32, ptr %6, align 4, !tbaa !116
  %16 = call noundef i32 @_ZN11duckdb_zstdL23ZSTD_isUpdateAuthorizedENS_15ZSTD_cParameterE(i32 noundef %15)
  %17 = icmp ne i32 %16, 0
  br i1 %17, label %18, label %21

18:                                               ; preds = %14
  %19 = load ptr, ptr %5, align 8, !tbaa !13
  %20 = getelementptr inbounds nuw %"struct.duckdb_zstd::ZSTD_CCtx_s", ptr %19, i32 0, i32 1
  store i32 1, ptr %20, align 4, !tbaa !123
  br label %32

21:                                               ; preds = %14
  br label %22

22:                                               ; preds = %21
  br label %23

23:                                               ; preds = %22
  br label %24

24:                                               ; preds = %23
  br label %25

25:                                               ; preds = %24
  br label %26

26:                                               ; preds = %25
  br label %27

27:                                               ; preds = %26
  br label %28

28:                                               ; preds = %27
  br label %29

29:                                               ; preds = %28
  br label %30

30:                                               ; preds = %29
  store i64 -60, ptr %4, align 8
  br label %73

31:                                               ; No predecessors!
  br label %32

32:                                               ; preds = %31, %18
  br label %33

33:                                               ; preds = %32, %9
  %34 = load i32, ptr %6, align 4, !tbaa !116
  switch i32 %34, label %56 [
    i32 400, label %35
    i32 100, label %55
    i32 101, label %55
    i32 102, label %55
    i32 103, label %55
    i32 104, label %55
    i32 105, label %55
    i32 106, label %55
    i32 107, label %55
    i32 164, label %55
    i32 10, label %55
    i32 200, label %55
    i32 201, label %55
    i32 202, label %55
    i32 1000, label %55
    i32 1001, label %55
    i32 1002, label %55
    i32 401, label %55
    i32 402, label %55
    i32 500, label %55
    i32 1005, label %55
    i32 160, label %55
    i32 161, label %55
    i32 162, label %55
    i32 163, label %55
    i32 130, label %55
    i32 1004, label %55
    i32 1006, label %55
    i32 1007, label %55
    i32 1008, label %55
    i32 1009, label %55
    i32 1010, label %55
    i32 1011, label %55
    i32 1012, label %55
    i32 1013, label %55
    i32 1014, label %55
    i32 1015, label %55
    i32 1016, label %55
  ]

35:                                               ; preds = %33
  br label %36

36:                                               ; preds = %35
  %37 = load i32, ptr %7, align 4, !tbaa !79
  %38 = icmp ne i32 %37, 0
  br i1 %38, label %39, label %53

39:                                               ; preds = %36
  %40 = load ptr, ptr %5, align 8, !tbaa !13
  %41 = getelementptr inbounds nuw %"struct.duckdb_zstd::ZSTD_CCtx_s", ptr %40, i32 0, i32 16
  %42 = load i64, ptr %41, align 8, !tbaa !62
  %43 = icmp ne i64 %42, 0
  br i1 %43, label %44, label %53

44:                                               ; preds = %39
  br label %45

45:                                               ; preds = %44
  br label %46

46:                                               ; preds = %45
  br label %47

47:                                               ; preds = %46
  br label %48

48:                                               ; preds = %47
  br label %49

49:                                               ; preds = %48
  br label %50

50:                                               ; preds = %49
  br label %51

51:                                               ; preds = %50
  br label %52

52:                                               ; preds = %51
  store i64 -40, ptr %4, align 8
  br label %73

53:                                               ; preds = %39, %36
  br label %54

54:                                               ; preds = %53
  br label %67

55:                                               ; preds = %33, %33, %33, %33, %33, %33, %33, %33, %33, %33, %33, %33, %33, %33, %33, %33, %33, %33, %33, %33, %33, %33, %33, %33, %33, %33, %33, %33, %33, %33, %33, %33, %33, %33, %33, %33, %33
  br label %67

56:                                               ; preds = %33
  br label %57

57:                                               ; preds = %56
  br label %58

58:                                               ; preds = %57
  br label %59

59:                                               ; preds = %58
  br label %60

60:                                               ; preds = %59
  br label %61

61:                                               ; preds = %60
  br label %62

62:                                               ; preds = %61
  br label %63

63:                                               ; preds = %62
  br label %64

64:                                               ; preds = %63
  br label %65

65:                                               ; preds = %64
  store i64 -40, ptr %4, align 8
  br label %73

66:                                               ; No predecessors!
  br label %67

67:                                               ; preds = %66, %55, %54
  %68 = load ptr, ptr %5, align 8, !tbaa !13
  %69 = getelementptr inbounds nuw %"struct.duckdb_zstd::ZSTD_CCtx_s", ptr %68, i32 0, i32 3
  %70 = load i32, ptr %6, align 4, !tbaa !116
  %71 = load i32, ptr %7, align 4, !tbaa !79
  %72 = call noundef i64 @_ZN11duckdb_zstd28ZSTD_CCtxParams_setParameterEPNS_18ZSTD_CCtx_params_sENS_15ZSTD_cParameterEi(ptr noundef %69, i32 noundef %70, i32 noundef %71)
  store i64 %72, ptr %4, align 8
  br label %73

73:                                               ; preds = %67, %65, %52, %30
  %74 = load i64, ptr %4, align 8
  ret i64 %74
}