; Function Attrs: mustprogress nofree norecurse nosync nounwind willreturn memory(argmem: readwrite) uwtable
define noundef range(i64 -60, 2147483648) i64 @_ZN11duckdb_zstd22ZSTD_CCtx_setParameterEPNS_11ZSTD_CCtx_sENS_15ZSTD_cParameterEi(ptr noundef captures(none) %0, i32 noundef %1, i32 noundef %2) local_unnamed_addr #9 {
  %4 = getelementptr inbounds nuw i8, ptr %0, i64 3608
  %5 = load i32, ptr %4, align 8, !tbaa !99
  %.not = icmp eq i32 %5, 0
  br i1 %.not, label %8, label %6

6:                                                ; preds = %3
  switch i32 %1, label %_ZN11duckdb_zstdL23ZSTD_isUpdateAuthorizedENS_15ZSTD_cParameterE.exit.thread [
    i32 100, label %_ZN11duckdb_zstdL23ZSTD_isUpdateAuthorizedENS_15ZSTD_cParameterE.exit
    i32 102, label %_ZN11duckdb_zstdL23ZSTD_isUpdateAuthorizedENS_15ZSTD_cParameterE.exit
    i32 103, label %_ZN11duckdb_zstdL23ZSTD_isUpdateAuthorizedENS_15ZSTD_cParameterE.exit
    i32 104, label %_ZN11duckdb_zstdL23ZSTD_isUpdateAuthorizedENS_15ZSTD_cParameterE.exit
    i32 105, label %_ZN11duckdb_zstdL23ZSTD_isUpdateAuthorizedENS_15ZSTD_cParameterE.exit
    i32 106, label %_ZN11duckdb_zstdL23ZSTD_isUpdateAuthorizedENS_15ZSTD_cParameterE.exit
    i32 107, label %_ZN11duckdb_zstdL23ZSTD_isUpdateAuthorizedENS_15ZSTD_cParameterE.exit
  ]

_ZN11duckdb_zstdL23ZSTD_isUpdateAuthorizedENS_15ZSTD_cParameterE.exit: ; preds = %6, %6, %6, %6, %6, %6, %6
  %7 = getelementptr inbounds nuw i8, ptr %0, i64 4
  store i32 1, ptr %7, align 4, !tbaa !100
  br label %8

8:                                                ; preds = %_ZN11duckdb_zstdL23ZSTD_isUpdateAuthorizedENS_15ZSTD_cParameterE.exit, %3
  switch i32 %1, label %_ZN11duckdb_zstdL23ZSTD_isUpdateAuthorizedENS_15ZSTD_cParameterE.exit.thread [
    i32 400, label %9
    i32 100, label %13
    i32 101, label %13
    i32 102, label %13
    i32 103, label %13
    i32 104, label %13
    i32 105, label %13
    i32 106, label %13
    i32 107, label %13
    i32 164, label %13
    i32 10, label %13
    i32 200, label %13
    i32 201, label %13
    i32 202, label %13
    i32 1000, label %13
    i32 1001, label %13
    i32 1002, label %13
    i32 401, label %13
    i32 402, label %13
    i32 500, label %13
    i32 1005, label %13
    i32 160, label %13
    i32 161, label %13
    i32 162, label %13
    i32 163, label %13
    i32 130, label %13
    i32 1004, label %13
    i32 1006, label %13
    i32 1007, label %13
    i32 1008, label %13
    i32 1009, label %13
    i32 1010, label %13
    i32 1011, label %13
    i32 1012, label %13
    i32 1013, label %13
    i32 1014, label %13
    i32 1015, label %13
    i32 1016, label %13
  ]

9:                                                ; preds = %8
  %.not10 = icmp eq i32 %2, 0
  br i1 %.not10, label %13, label %10

10:                                               ; preds = %9
  %11 = getelementptr inbounds nuw i8, ptr %0, i64 904
  %12 = load i64, ptr %11, align 8, !tbaa !64
  %.not11 = icmp eq i64 %12, 0
  br i1 %.not11, label %13, label %_ZN11duckdb_zstdL23ZSTD_isUpdateAuthorizedENS_15ZSTD_cParameterE.exit.thread

13:                                               ; preds = %8, %8, %8, %8, %8, %8, %8, %8, %8, %8, %8, %8, %8, %8, %8, %8, %8, %8, %8, %8, %8, %8, %8, %8, %8, %8, %8, %8, %8, %8, %8, %8, %8, %8, %8, %8, %8, %10, %9
  %14 = getelementptr inbounds nuw i8, ptr %0, i64 16
  %15 = tail call noundef i64 @_ZN11duckdb_zstd28ZSTD_CCtxParams_setParameterEPNS_18ZSTD_CCtx_params_sENS_15ZSTD_cParameterEi(ptr noundef nonnull %14, i32 noundef %1, i32 noundef %2)
  br label %_ZN11duckdb_zstdL23ZSTD_isUpdateAuthorizedENS_15ZSTD_cParameterE.exit.thread

_ZN11duckdb_zstdL23ZSTD_isUpdateAuthorizedENS_15ZSTD_cParameterE.exit.thread: ; preds = %6, %8, %10, %13
  %.0 = phi i64 [ %15, %13 ], [ -40, %10 ], [ -40, %8 ], [ -60, %6 ]
  ret i64 %.0
}